; Function Attrs: mustprogress uwtable
define void @_ZNK8facebook5velox4core9LimitNode9serializeEv(ptr noalias sret(%"struct.folly::dynamic") align 8 %agg.result, ptr noundef nonnull align 8 dereferenceable(88) %this) unnamed_addr #0 align 2 personality ptr @__gxx_personality_v0 {
invoke.cont:
  %ref.tmp = alloca %"struct.folly::dynamic", align 8
  %ref.tmp6 = alloca %"struct.folly::dynamic", align 8
  %ref.tmp14 = alloca %"struct.folly::dynamic", align 8
  tail call void @_ZNK8facebook5velox4core8PlanNode9serializeEv(ptr sret(%"struct.folly::dynamic") align 8 %agg.result, ptr noundef nonnull align 8 dereferenceable(40) %this)
  %isPartial_ = getelementptr inbounds i8, ptr %this, i64 56
  %0 = load i8, ptr %isPartial_, align 8
  %1 = and i8 %0, 1
  %u_.i = getelementptr inbounds i8, ptr %ref.tmp, i64 8
  store ptr null, ptr %u_.i, align 8
  store i32 2, ptr %ref.tmp, align 8
  store i8 %1, ptr %u_.i, align 8
  %call = invoke noundef nonnull align 8 dereferenceable(40) ptr @_ZNR5folly7dynamicixENS_5RangeIPKcEE(ptr noundef nonnull align 8 dereferenceable(40) %agg.result, ptr nonnull @.str.120, ptr nonnull getelementptr inbounds ([8 x i8], ptr @.str.120, i64 0, i64 7))
          to label %invoke.cont7 unwind label %lpad2

invoke.cont7:                                     ; preds = %invoke.cont
  %call5 = call noundef nonnull align 8 dereferenceable(40) ptr @_ZN5folly7dynamicaSEOS0_(ptr noundef nonnull align 8 dereferenceable(40) %call, ptr noundef nonnull align 8 dereferenceable(40) %ref.tmp) #30
  call void @_ZN5folly7dynamic7destroyEv(ptr noundef nonnull align 8 dereferenceable(40) %ref.tmp) #30
  %count_ = getelementptr inbounds i8, ptr %this, i64 48
  %2 = load i64, ptr %count_, align 8
  %u_.i2 = getelementptr inbounds i8, ptr %ref.tmp6, i64 8
  store i32 4, ptr %ref.tmp6, align 8
  store i64 %2, ptr %u_.i2, align 8
  %call12 = invoke noundef nonnull align 8 dereferenceable(40) ptr @_ZNR5folly7dynamicixENS_5RangeIPKcEE(ptr noundef nonnull align 8 dereferenceable(40) %agg.result, ptr nonnull @.str.119, ptr nonnull getelementptr inbounds ([6 x i8], ptr @.str.119, i64 0, i64 5))
          to label %invoke.cont15 unwind label %lpad9

invoke.cont15:                                    ; preds = %invoke.cont7
  %call13 = call noundef nonnull align 8 dereferenceable(40) ptr @_ZN5folly7dynamicaSEOS0_(ptr noundef nonnull align 8 dereferenceable(40) %call12, ptr noundef nonnull align 8 dereferenceable(40) %ref.tmp6) #30
  call void @_ZN5folly7dynamic7destroyEv(ptr noundef nonnull align 8 dereferenceable(40) %ref.tmp6) #30
  %offset_ = getelementptr inbounds i8, ptr %this, i64 40
  %3 = load i64, ptr %offset_, align 8
  %u_.i6 = getelementptr inbounds i8, ptr %ref.tmp14, i64 8
  store i32 4, ptr %ref.tmp14, align 8
  store i64 %3, ptr %u_.i6, align 8
  %call20 = invoke noundef nonnull align 8 dereferenceable(40) ptr @_ZNR5folly7dynamicixENS_5RangeIPKcEE(ptr noundef nonnull align 8 dereferenceable(40) %agg.result, ptr nonnull @.str.122, ptr nonnull getelementptr inbounds ([7 x i8], ptr @.str.122, i64 0, i64 6))
          to label %invoke.cont19 unwind label %lpad17

invoke.cont19:                                    ; preds = %invoke.cont15
  %call21 = call noundef nonnull align 8 dereferenceable(40) ptr @_ZN5folly7dynamicaSEOS0_(ptr noundef nonnull align 8 dereferenceable(40) %call20, ptr noundef nonnull align 8 dereferenceable(40) %ref.tmp14) #30
  call void @_ZN5folly7dynamic7destroyEv(ptr noundef nonnull align 8 dereferenceable(40) %ref.tmp14) #30
  ret void

lpad2:                                            ; preds = %invoke.cont
  %4 = landingpad { ptr, i32 }
          cleanup
  br label %ehcleanup

lpad9:                                            ; preds = %invoke.cont7
  %5 = landingpad { ptr, i32 }
          cleanup
  br label %ehcleanup

lpad17:                                           ; preds = %invoke.cont15
  %6 = landingpad { ptr, i32 }
          cleanup
  br label %ehcleanup

ehcleanup:                                        ; preds = %lpad17, %lpad9, %lpad2
  %ref.tmp14.sink = phi ptr [ %ref.tmp14, %lpad17 ], [ %ref.tmp6, %lpad9 ], [ %ref.tmp, %lpad2 ]
  %.pn = phi { ptr, i32 } [ %6, %lpad17 ], [ %5, %lpad9 ], [ %4, %lpad2 ]
  call void @_ZN5folly7dynamic7destroyEv(ptr noundef nonnull align 8 dereferenceable(40) %ref.tmp14.sink) #30
  call void @_ZN5folly7dynamic7destroyEv(ptr noundef nonnull align 8 dereferenceable(40) %agg.result) #30
  resume { ptr, i32 } %.pn
}